target datalayout = "e-m:e-p270:32:32-p271:32:32-p272:64:64-i64:64-i128:128-f80:128-n8:16:32:64-S128"
target triple = "x86_64-pc-linux-gnu"

%struct._someip_sd_entries_tap = type { i8, i16, i8, i32, i16, i16, i32 }

@.str.196 = private unnamed_addr constant [8 x i8] c"%s (%s)\00", align 1
@.str.200 = private unnamed_addr constant [7 x i8] c"0x%04x\00", align 1
@.str.201 = private unnamed_addr constant [3 x i8] c"%d\00", align 1
@.str.202 = private unnamed_addr constant [42 x i8] c"Service %s (%s) Version %s.%s Instance %s\00", align 1
@.str.203 = private unnamed_addr constant [37 x i8] c"Service %s Version %s.%s Instance %s\00", align 1
@.str.204 = private unnamed_addr constant [53 x i8] c"Service %s (%s) Version %s Instance %s Eventgroup %s\00", align 1
@.str.205 = private unnamed_addr constant [48 x i8] c"Service %s Version %s Instance %s Eventgroup %s\00", align 1
@.str.206 = private unnamed_addr constant [3 x i8] c"%s\00", align 1
@.str.207 = private unnamed_addr constant [4 x i8] c"MAX\00", align 1

; Function Attrs: null_pointer_is_valid sspstrong uwtable
define internal void @stat_number_to_string_with_any(i32 noundef %0, i32 noundef %1, ptr noundef %2, ptr noundef %3, i64 noundef %4) #0 {
  %6 = alloca i32, align 4
  %7 = alloca i32, align 4
  %8 = alloca ptr, align 8
  %9 = alloca ptr, align 8
  %10 = alloca i64, align 8
  store i32 %0, ptr %6, align 4
  store i32 %1, ptr %7, align 4
  store ptr %2, ptr %8, align 8
  store ptr %3, ptr %9, align 8
  store i64 %4, ptr %10, align 8
  %11 = load i32, ptr %6, align 4
  %12 = load i32, ptr %7, align 4
  %13 = icmp eq i32 %11, %12
  br i1 %13, label %14, label %20

14:                                               ; preds = %5
  %15 = load ptr, ptr %9, align 8
  %16 = load i64, ptr %10, align 8
  %17 = load ptr, ptr %9, align 8
  %18 = call i64 @llvm.objectsize.i64.p0(ptr %17, i1 false, i1 true, i1 true)
  %19 = call i32 (ptr, i64, i32, i64, ptr, ...) @__snprintf_chk(ptr noundef %15, i64 noundef %16, i32 noundef 2, i64 noundef %18, ptr noundef @.str.206, ptr noundef @.str.207)
  br label %28

20:                                               ; preds = %5
  %21 = load ptr, ptr %9, align 8
  %22 = load i64, ptr %10, align 8
  %23 = load ptr, ptr %9, align 8
  %24 = call i64 @llvm.objectsize.i64.p0(ptr %23, i1 false, i1 true, i1 true)
  %25 = load ptr, ptr %8, align 8
  %26 = load i32, ptr %6, align 4
  %27 = call i32 (ptr, i64, i32, i64, ptr, ...) @__snprintf_chk(ptr noundef %21, i64 noundef %22, i32 noundef 2, i64 noundef %24, ptr noundef %25, i32 noundef %26)
  br label %28

28:                                               ; preds = %20, %14
  ret void
}

; Function Attrs: null_pointer_is_valid sspstrong uwtable
define internal void @stat_create_entry_summary_string(ptr noundef %0, ptr noundef %1, i64 noundef %2) #0 {
  %4 = alloca ptr, align 8
  %5 = alloca ptr, align 8
  %6 = alloca i64, align 8
  %7 = alloca [128 x i8], align 16
  %8 = alloca [128 x i8], align 16
  %9 = alloca [128 x i8], align 16
  %10 = alloca [128 x i8], align 16
  %11 = alloca [128 x i8], align 16
  %12 = alloca [128 x i8], align 16
  %13 = alloca ptr, align 8
  %14 = alloca ptr, align 8
  store ptr %0, ptr %4, align 8
  store ptr %1, ptr %5, align 8
  store i64 %2, ptr %6, align 8
  call void @llvm.lifetime.start.p0(i64 128, ptr %7) #7
  call void @llvm.lifetime.start.p0(i64 128, ptr %8) #7
  call void @llvm.lifetime.start.p0(i64 128, ptr %9) #7
  call void @llvm.lifetime.start.p0(i64 128, ptr %10) #7
  call void @llvm.lifetime.start.p0(i64 128, ptr %11) #7
  call void @llvm.lifetime.start.p0(i64 128, ptr %12) #7
  call void @llvm.lifetime.start.p0(i64 8, ptr %13) #7
  %15 = load ptr, ptr %4, align 8
  %16 = getelementptr inbounds nuw %struct._someip_sd_entries_tap, ptr %15, i32 0, i32 1
  %17 = load i16, ptr %16, align 2
  %18 = call ptr @someip_lookup_service_name(i16 noundef zeroext %17)
  store ptr %18, ptr %13, align 8
  call void @llvm.lifetime.start.p0(i64 8, ptr %14) #7
  %19 = load ptr, ptr %4, align 8
  %20 = getelementptr inbounds nuw %struct._someip_sd_entries_tap, ptr %19, i32 0, i32 1
  %21 = load i16, ptr %20, align 2
  %22 = load ptr, ptr %4, align 8
  %23 = getelementptr inbounds nuw %struct._someip_sd_entries_tap, ptr %22, i32 0, i32 5
  %24 = load i16, ptr %23, align 2
  %25 = call ptr @someip_lookup_eventgroup_name(i16 noundef zeroext %21, i16 noundef zeroext %24)
  store ptr %25, ptr %14, align 8
  %26 = load ptr, ptr %4, align 8
  %27 = getelementptr inbounds nuw %struct._someip_sd_entries_tap, ptr %26, i32 0, i32 1
  %28 = load i16, ptr %27, align 2
  %29 = zext i16 %28 to i32
  %30 = getelementptr inbounds [128 x i8], ptr %7, i64 0, i64 0
  call void @stat_number_to_string_with_any(i32 noundef %29, i32 noundef -1, ptr noundef @.str.200, ptr noundef %30, i64 noundef 127)
  %31 = load ptr, ptr %4, align 8
  %32 = getelementptr inbounds nuw %struct._someip_sd_entries_tap, ptr %31, i32 0, i32 4
  %33 = load i16, ptr %32, align 4
  %34 = zext i16 %33 to i32
  %35 = getelementptr inbounds [128 x i8], ptr %8, i64 0, i64 0
  call void @stat_number_to_string_with_any(i32 noundef %34, i32 noundef -1, ptr noundef @.str.200, ptr noundef %35, i64 noundef 127)
  %36 = load ptr, ptr %4, align 8
  %37 = getelementptr inbounds nuw %struct._someip_sd_entries_tap, ptr %36, i32 0, i32 2
  %38 = load i8, ptr %37, align 4
  %39 = zext i8 %38 to i32
  %40 = getelementptr inbounds [128 x i8], ptr %9, i64 0, i64 0
  call void @stat_number_to_string_with_any(i32 noundef %39, i32 noundef 255, ptr noundef @.str.201, ptr noundef %40, i64 noundef 127)
  %41 = load ptr, ptr %4, align 8
  %42 = getelementptr inbounds nuw %struct._someip_sd_entries_tap, ptr %41, i32 0, i32 0
  %43 = load i8, ptr %42, align 4
  %44 = zext i8 %43 to i32
  switch i32 %44, label %109 [
    i32 0, label %45
    i32 1, label %45
    i32 6, label %74
    i32 7, label %74
  ]

45:                                               ; preds = %3, %3
  %46 = load ptr, ptr %4, align 8
  %47 = getelementptr inbounds nuw %struct._someip_sd_entries_tap, ptr %46, i32 0, i32 3
  %48 = load i32, ptr %47, align 4
  %49 = getelementptr inbounds [128 x i8], ptr %10, i64 0, i64 0
  call void @stat_number_to_string_with_any(i32 noundef %48, i32 noundef -1, ptr noundef @.str.201, ptr noundef %49, i64 noundef 127)
  %50 = load ptr, ptr %13, align 8
  %51 = icmp ne ptr %50, null
  br i1 %51, label %52, label %63

52:                                               ; preds = %45
  %53 = load ptr, ptr %5, align 8
  %54 = load i64, ptr %6, align 8
  %55 = load ptr, ptr %5, align 8
  %56 = call i64 @llvm.objectsize.i64.p0(ptr %55, i1 false, i1 true, i1 true)
  %57 = getelementptr inbounds [128 x i8], ptr %7, i64 0, i64 0
  %58 = load ptr, ptr %13, align 8
  %59 = getelementptr inbounds [128 x i8], ptr %9, i64 0, i64 0
  %60 = getelementptr inbounds [128 x i8], ptr %10, i64 0, i64 0
  %61 = getelementptr inbounds [128 x i8], ptr %8, i64 0, i64 0
  %62 = call i32 (ptr, i64, i32, i64, ptr, ...) @__snprintf_chk(ptr noundef %53, i64 noundef %54, i32 noundef 2, i64 noundef %56, ptr noundef @.str.202, ptr noundef %57, ptr noundef %58, ptr noundef %59, ptr noundef %60, ptr noundef %61)
  br label %73

63:                                               ; preds = %45
  %64 = load ptr, ptr %5, align 8
  %65 = load i64, ptr %6, align 8
  %66 = load ptr, ptr %5, align 8
  %67 = call i64 @llvm.objectsize.i64.p0(ptr %66, i1 false, i1 true, i1 true)
  %68 = getelementptr inbounds [128 x i8], ptr %7, i64 0, i64 0
  %69 = getelementptr inbounds [128 x i8], ptr %9, i64 0, i64 0
  %70 = getelementptr inbounds [128 x i8], ptr %10, i64 0, i64 0
  %71 = getelementptr inbounds [128 x i8], ptr %8, i64 0, i64 0
  %72 = call i32 (ptr, i64, i32, i64, ptr, ...) @__snprintf_chk(ptr noundef %64, i64 noundef %65, i32 noundef 2, i64 noundef %67, ptr noundef @.str.203, ptr noundef %68, ptr noundef %69, ptr noundef %70, ptr noundef %71)
  br label %73

73:                                               ; preds = %63, %52
  br label %109

74:                                               ; preds = %3, %3
  %75 = load ptr, ptr %4, align 8
  %76 = getelementptr inbounds nuw %struct._someip_sd_entries_tap, ptr %75, i32 0, i32 5
  %77 = load i16, ptr %76, align 2
  %78 = zext i16 %77 to i32
  %79 = getelementptr inbounds [128 x i8], ptr %11, i64 0, i64 0
  call void @stat_number_to_string_with_any(i32 noundef %78, i32 noundef -1, ptr noundef @.str.200, ptr noundef %79, i64 noundef 127)
  %80 = load ptr, ptr %13, align 8
  %81 = icmp ne ptr %80, null
  br i1 %81, label %82, label %90

82:                                               ; preds = %74
  %83 = getelementptr inbounds [128 x i8], ptr %12, i64 0, i64 0
  %84 = getelementptr inbounds [128 x i8], ptr %7, i64 0, i64 0
  %85 = load ptr, ptr %13, align 8
  %86 = getelementptr inbounds [128 x i8], ptr %9, i64 0, i64 0
  %87 = getelementptr inbounds [128 x i8], ptr %8, i64 0, i64 0
  %88 = getelementptr inbounds [128 x i8], ptr %11, i64 0, i64 0
  %89 = call i32 (ptr, i64, i32, i64, ptr, ...) @__snprintf_chk(ptr noundef %83, i64 noundef 127, i32 noundef 2, i64 noundef 128, ptr noundef @.str.204, ptr noundef %84, ptr noundef %85, ptr noundef %86, ptr noundef %87, ptr noundef %88)
  br label %97

90:                                               ; preds = %74
  %91 = getelementptr inbounds [128 x i8], ptr %12, i64 0, i64 0
  %92 = getelementptr inbounds [128 x i8], ptr %7, i64 0, i64 0
  %93 = getelementptr inbounds [128 x i8], ptr %9, i64 0, i64 0
  %94 = getelementptr inbounds [128 x i8], ptr %8, i64 0, i64 0
  %95 = getelementptr inbounds [128 x i8], ptr %11, i64 0, i64 0
  %96 = call i32 (ptr, i64, i32, i64, ptr, ...) @__snprintf_chk(ptr noundef %91, i64 noundef 127, i32 noundef 2, i64 noundef 128, ptr noundef @.str.205, ptr noundef %92, ptr noundef %93, ptr noundef %94, ptr noundef %95)
  br label %97

97:                                               ; preds = %90, %82
  %98 = load ptr, ptr %14, align 8
  %99 = icmp ne ptr %98, null
  br i1 %99, label %100, label %108

100:                                              ; preds = %97
  %101 = load ptr, ptr %5, align 8
  %102 = load i64, ptr %6, align 8
  %103 = load ptr, ptr %5, align 8
  %104 = call i64 @llvm.objectsize.i64.p0(ptr %103, i1 false, i1 true, i1 true)
  %105 = getelementptr inbounds [128 x i8], ptr %12, i64 0, i64 0
  %106 = load ptr, ptr %14, align 8
  %107 = call i32 (ptr, i64, i32, i64, ptr, ...) @__snprintf_chk(ptr noundef %101, i64 noundef %102, i32 noundef 2, i64 noundef %104, ptr noundef @.str.196, ptr noundef %105, ptr noundef %106)
  br label %108

108:                                              ; preds = %100, %97
  br label %109

109:                                              ; preds = %3, %108, %73
  call void @llvm.lifetime.end.p0(i64 8, ptr %14) #7
  call void @llvm.lifetime.end.p0(i64 8, ptr %13) #7
  call void @llvm.lifetime.end.p0(i64 128, ptr %12) #7
  call void @llvm.lifetime.end.p0(i64 128, ptr %11) #7
  call void @llvm.lifetime.end.p0(i64 128, ptr %10) #7
  call void @llvm.lifetime.end.p0(i64 128, ptr %9) #7
  call void @llvm.lifetime.end.p0(i64 128, ptr %8) #7
  call void @llvm.lifetime.end.p0(i64 128, ptr %7) #7
  ret void
}