; Function Attrs: null_pointer_is_valid sspstrong uwtable
define internal fastcc void @stat_create_entry_summary_string(ptr noundef nonnull readonly captures(none) %0) unnamed_addr #0 {
  %2 = alloca [128 x i8], align 16
  %3 = alloca [128 x i8], align 16
  %4 = alloca [128 x i8], align 16
  %5 = alloca [128 x i8], align 16
  %6 = alloca [128 x i8], align 16
  %7 = alloca [128 x i8], align 16
  call void @llvm.lifetime.start.p0(i64 128, ptr nonnull %2) #7
  call void @llvm.lifetime.start.p0(i64 128, ptr nonnull %3) #7
  call void @llvm.lifetime.start.p0(i64 128, ptr nonnull %4) #7
  call void @llvm.lifetime.start.p0(i64 128, ptr nonnull %5) #7
  call void @llvm.lifetime.start.p0(i64 128, ptr nonnull %6) #7
  call void @llvm.lifetime.start.p0(i64 128, ptr nonnull %7) #7
  %8 = getelementptr inbounds nuw i8, ptr %0, i64 2
  %9 = load i16, ptr %8, align 2
  %10 = tail call ptr @someip_lookup_service_name(i16 noundef zeroext %9)
  %11 = load i16, ptr %8, align 2
  %12 = getelementptr inbounds nuw i8, ptr %0, i64 14
  %13 = load i16, ptr %12, align 2
  %14 = tail call ptr @someip_lookup_eventgroup_name(i16 noundef zeroext %11, i16 noundef zeroext %13)
  %15 = load i16, ptr %8, align 2
  %16 = zext i16 %15 to i32
  %17 = call i32 (ptr, i64, i32, i64, ptr, ...) @__snprintf_chk(ptr noundef nonnull %2, i64 noundef 127, i32 noundef 2, i64 noundef 128, ptr noundef nonnull @.str.200, i32 noundef %16)
  %18 = getelementptr inbounds nuw i8, ptr %0, i64 12
  %19 = load i16, ptr %18, align 4
  %20 = zext i16 %19 to i32
  %21 = call i32 (ptr, i64, i32, i64, ptr, ...) @__snprintf_chk(ptr noundef nonnull %3, i64 noundef 127, i32 noundef 2, i64 noundef 128, ptr noundef nonnull @.str.200, i32 noundef %20)
  %22 = getelementptr inbounds nuw i8, ptr %0, i64 4
  %23 = load i8, ptr %22, align 4
  %24 = icmp eq i8 %23, -1
  br i1 %24, label %25, label %27

25:                                               ; preds = %1
  %26 = call i32 (ptr, i64, i32, i64, ptr, ...) @__snprintf_chk(ptr noundef nonnull %4, i64 noundef 127, i32 noundef 2, i64 noundef 128, ptr noundef nonnull @.str.206, ptr noundef nonnull @.str.207)
  br label %stat_number_to_string_with_any.exit

27:                                               ; preds = %1
  %28 = zext i8 %23 to i32
  %29 = call i32 (ptr, i64, i32, i64, ptr, ...) @__snprintf_chk(ptr noundef nonnull %4, i64 noundef 127, i32 noundef 2, i64 noundef 128, ptr noundef nonnull @.str.201, i32 noundef %28)
  br label %stat_number_to_string_with_any.exit

stat_number_to_string_with_any.exit:              ; preds = %25, %27
  %30 = load i8, ptr %0, align 4
  switch i8 %30, label %54 [
    i8 0, label %31
    i8 1, label %31
    i8 6, label %43
    i8 7, label %43
  ]

31:                                               ; preds = %stat_number_to_string_with_any.exit, %stat_number_to_string_with_any.exit
  %32 = getelementptr inbounds nuw i8, ptr %0, i64 8
  %33 = load i32, ptr %32, align 4
  %34 = icmp eq i32 %33, -1
  br i1 %34, label %35, label %37

35:                                               ; preds = %31
  %36 = call i32 (ptr, i64, i32, i64, ptr, ...) @__snprintf_chk(ptr noundef nonnull %5, i64 noundef 127, i32 noundef 2, i64 noundef 128, ptr noundef nonnull @.str.206, ptr noundef nonnull @.str.207)
  br label %stat_number_to_string_with_any.exit26

37:                                               ; preds = %31
  %38 = call i32 (ptr, i64, i32, i64, ptr, ...) @__snprintf_chk(ptr noundef nonnull %5, i64 noundef 127, i32 noundef 2, i64 noundef 128, ptr noundef nonnull @.str.201, i32 noundef %33)
  br label %stat_number_to_string_with_any.exit26

stat_number_to_string_with_any.exit26:            ; preds = %35, %37
  %.not25 = icmp eq ptr %10, null
  br i1 %.not25, label %41, label %39

39:                                               ; preds = %stat_number_to_string_with_any.exit26
  %40 = call i32 (ptr, i64, i32, i64, ptr, ...) @__snprintf_chk(ptr noundef nonnull @someipsd_entries_stats_tree_packet.tmp_str, i64 noundef 127, i32 noundef 2, i64 noundef 128, ptr noundef nonnull @.str.202, ptr noundef nonnull %2, ptr noundef nonnull %10, ptr noundef nonnull %4, ptr noundef nonnull %5, ptr noundef nonnull %3)
  br label %54

41:                                               ; preds = %stat_number_to_string_with_any.exit26
  %42 = call i32 (ptr, i64, i32, i64, ptr, ...) @__snprintf_chk(ptr noundef nonnull @someipsd_entries_stats_tree_packet.tmp_str, i64 noundef 127, i32 noundef 2, i64 noundef 128, ptr noundef nonnull @.str.203, ptr noundef nonnull %2, ptr noundef nonnull %4, ptr noundef nonnull %5, ptr noundef nonnull %3)
  br label %54

43:                                               ; preds = %stat_number_to_string_with_any.exit, %stat_number_to_string_with_any.exit
  %44 = load i16, ptr %12, align 2
  %45 = zext i16 %44 to i32
  %46 = call i32 (ptr, i64, i32, i64, ptr, ...) @__snprintf_chk(ptr noundef nonnull %6, i64 noundef 127, i32 noundef 2, i64 noundef 128, ptr noundef nonnull @.str.200, i32 noundef %45)
  %.not = icmp eq ptr %10, null
  br i1 %.not, label %49, label %47

47:                                               ; preds = %43
  %48 = call i32 (ptr, i64, i32, i64, ptr, ...) @__snprintf_chk(ptr noundef nonnull %7, i64 noundef 127, i32 noundef 2, i64 noundef 128, ptr noundef nonnull @.str.204, ptr noundef nonnull %2, ptr noundef nonnull %10, ptr noundef nonnull %4, ptr noundef nonnull %3, ptr noundef nonnull %6)
  br label %51

49:                                               ; preds = %43
  %50 = call i32 (ptr, i64, i32, i64, ptr, ...) @__snprintf_chk(ptr noundef nonnull %7, i64 noundef 127, i32 noundef 2, i64 noundef 128, ptr noundef nonnull @.str.205, ptr noundef nonnull %2, ptr noundef nonnull %4, ptr noundef nonnull %3, ptr noundef nonnull %6)
  br label %51

51:                                               ; preds = %49, %47
  %.not24 = icmp eq ptr %14, null
  br i1 %.not24, label %54, label %52

52:                                               ; preds = %51
  %53 = call i32 (ptr, i64, i32, i64, ptr, ...) @__snprintf_chk(ptr noundef nonnull @someipsd_entries_stats_tree_packet.tmp_str, i64 noundef 127, i32 noundef 2, i64 noundef 128, ptr noundef nonnull @.str.196, ptr noundef nonnull %7, ptr noundef nonnull %14)
  br label %54

54:                                               ; preds = %51, %52, %39, %41, %stat_number_to_string_with_any.exit
  call void @llvm.lifetime.end.p0(i64 128, ptr nonnull %7) #7
  call void @llvm.lifetime.end.p0(i64 128, ptr nonnull %6) #7
  call void @llvm.lifetime.end.p0(i64 128, ptr nonnull %5) #7
  call void @llvm.lifetime.end.p0(i64 128, ptr nonnull %4) #7
  call void @llvm.lifetime.end.p0(i64 128, ptr nonnull %3) #7
  call void @llvm.lifetime.end.p0(i64 128, ptr nonnull %2) #7
  ret void
}